; Function Attrs: mustprogress nounwind uwtable
define internal void @_ZN3tsi12_GLOBAL__N_122BoringSslCachedSessionD0Ev(ptr noundef nonnull align 8 dereferenceable(16) %this) unnamed_addr #3 align 2 personality ptr @__gxx_personality_v0 {
entry:
  store ptr getelementptr inbounds ({ [5 x ptr] }, ptr @_ZTVN3tsi12_GLOBAL__N_122BoringSslCachedSessionE, i64 0, i32 0, i64 2), ptr %this, align 8
  %session_.i = getelementptr inbounds i8, ptr %this, i64 8
  %0 = load ptr, ptr %session_.i, align 8
  %cmp.not.i.i = icmp eq ptr %0, null
  br i1 %cmp.not.i.i, label %_ZN3tsi12_GLOBAL__N_122BoringSslCachedSessionD2Ev.exit, label %if.then.i.i

if.then.i.i:                                      ; preds = %entry
  invoke void @SSL_SESSION_free(ptr noundef nonnull %0)
          to label %_ZN3tsi12_GLOBAL__N_122BoringSslCachedSessionD2Ev.exit unwind label %terminate.lpad.i.i

terminate.lpad.i.i:                               ; preds = %if.then.i.i
  %1 = landingpad { ptr, i32 }
          catch ptr null
  %2 = extractvalue { ptr, i32 } %1, 0
  tail call void @__clang_call_terminate(ptr %2) #7
  unreachable

_ZN3tsi12_GLOBAL__N_122BoringSslCachedSessionD2Ev.exit: ; preds = %entry, %if.then.i.i
  tail call void @_ZdlPv(ptr noundef nonnull %this) #8
  ret void
}